target datalayout = "e-m:e-p270:32:32-p271:32:32-p272:64:64-i64:64-i128:128-f80:128-n8:16:32:64-S128"
target triple = "x86_64-pc-linux-gnu"

%struct.Aig_ManPre_t_ = type { ptr, ptr, i32, ptr, ptr, ptr, ptr, ptr, ptr, ptr }
%struct.Vec_Ptr_t_ = type { i32, i32, ptr }
%struct.Vec_Int_t_ = type { i32, i32, ptr }

; Function Attrs: inlinehint nounwind uwtable
define internal ptr @Vec_PtrEntry(ptr noundef %0, i32 noundef %1) #5 {
  %3 = alloca ptr, align 8
  %4 = alloca i32, align 4
  store ptr %0, ptr %3, align 8, !tbaa !27
  store i32 %1, ptr %4, align 4, !tbaa !8
  %5 = load ptr, ptr %3, align 8, !tbaa !27
  %6 = getelementptr inbounds nuw %struct.Vec_Ptr_t_, ptr %5, i32 0, i32 2
  %7 = load ptr, ptr %6, align 8, !tbaa !31
  %8 = load i32, ptr %4, align 4, !tbaa !8
  %9 = sext i32 %8 to i64
  %10 = getelementptr inbounds ptr, ptr %7, i64 %9
  %11 = load ptr, ptr %10, align 8, !tbaa !59
  ret ptr %11
}

; Function Attrs: inlinehint nounwind uwtable
define internal i32 @Vec_IntEntry(ptr noundef %0, i32 noundef %1) #5 {
  %3 = alloca ptr, align 8
  %4 = alloca i32, align 4
  store ptr %0, ptr %3, align 8, !tbaa !32
  store i32 %1, ptr %4, align 4, !tbaa !8
  %5 = load ptr, ptr %3, align 8, !tbaa !32
  %6 = getelementptr inbounds nuw %struct.Vec_Int_t_, ptr %5, i32 0, i32 2
  %7 = load ptr, ptr %6, align 8, !tbaa !37
  %8 = load i32, ptr %4, align 4, !tbaa !8
  %9 = sext i32 %8 to i64
  %10 = getelementptr inbounds i32, ptr %7, i64 %9
  %11 = load i32, ptr %10, align 4, !tbaa !8
  ret i32 %11
}

; Function Attrs: inlinehint nounwind uwtable
define internal i32 @Vec_IntSize(ptr noundef %0) #5 {
  %2 = alloca ptr, align 8
  store ptr %0, ptr %2, align 8, !tbaa !32
  %3 = load ptr, ptr %2, align 8, !tbaa !32
  %4 = getelementptr inbounds nuw %struct.Vec_Int_t_, ptr %3, i32 0, i32 1
  %5 = load i32, ptr %4, align 4, !tbaa !33
  ret i32 %5
}

; Function Attrs: nounwind uwtable
define i32 @Aig_ManRegFindBestVar(ptr noundef %0) #0 {
  %2 = alloca i32, align 4
  %3 = alloca ptr, align 8
  %4 = alloca ptr, align 8
  %5 = alloca i32, align 4
  %6 = alloca i32, align 4
  %7 = alloca i32, align 4
  %8 = alloca i32, align 4
  %9 = alloca i32, align 4
  %10 = alloca i32, align 4
  %11 = alloca i32, align 4
  %12 = alloca i32, align 4
  store ptr %0, ptr %3, align 8, !tbaa !10
  call void @llvm.lifetime.start.p0(i64 8, ptr %4) #9
  call void @llvm.lifetime.start.p0(i64 4, ptr %5) #9
  call void @llvm.lifetime.start.p0(i64 4, ptr %6) #9
  store i32 1000000000, ptr %6, align 4, !tbaa !8
  call void @llvm.lifetime.start.p0(i64 4, ptr %7) #9
  call void @llvm.lifetime.start.p0(i64 4, ptr %8) #9
  call void @llvm.lifetime.start.p0(i64 4, ptr %9) #9
  store i32 -1, ptr %9, align 4, !tbaa !8
  call void @llvm.lifetime.start.p0(i64 4, ptr %10) #9
  call void @llvm.lifetime.start.p0(i64 4, ptr %11) #9
  store i32 0, ptr %10, align 4, !tbaa !8
  br label %13

13:                                               ; preds = %84, %1
  %14 = load i32, ptr %10, align 4, !tbaa !8
  %15 = load ptr, ptr %3, align 8, !tbaa !10
  %16 = getelementptr inbounds nuw %struct.Aig_ManPre_t_, ptr %15, i32 0, i32 7
  %17 = load ptr, ptr %16, align 8, !tbaa !23
  %18 = call i32 @Vec_IntSize(ptr noundef %17)
  %19 = icmp slt i32 %14, %18
  br i1 %19, label %20, label %26

20:                                               ; preds = %13
  %21 = load ptr, ptr %3, align 8, !tbaa !10
  %22 = getelementptr inbounds nuw %struct.Aig_ManPre_t_, ptr %21, i32 0, i32 7
  %23 = load ptr, ptr %22, align 8, !tbaa !23
  %24 = load i32, ptr %10, align 4, !tbaa !8
  %25 = call i32 @Vec_IntEntry(ptr noundef %23, i32 noundef %24)
  store i32 %25, ptr %7, align 4, !tbaa !8
  br label %26

26:                                               ; preds = %20, %13
  %27 = phi i1 [ false, %13 ], [ true, %20 ]
  br i1 %27, label %28, label %87

28:                                               ; preds = %26
  %29 = load ptr, ptr %3, align 8, !tbaa !10
  %30 = getelementptr inbounds nuw %struct.Aig_ManPre_t_, ptr %29, i32 0, i32 1
  %31 = load ptr, ptr %30, align 8, !tbaa !18
  %32 = load i32, ptr %7, align 4, !tbaa !8
  %33 = call ptr @Vec_PtrEntry(ptr noundef %31, i32 noundef %32)
  store ptr %33, ptr %4, align 8, !tbaa !32
  store i32 0, ptr %5, align 4, !tbaa !8
  store i32 0, ptr %11, align 4, !tbaa !8
  br label %34

34:                                               ; preds = %68, %28
  %35 = load i32, ptr %11, align 4, !tbaa !8
  %36 = load ptr, ptr %4, align 8, !tbaa !32
  %37 = call i32 @Vec_IntSize(ptr noundef %36)
  %38 = icmp slt i32 %35, %37
  br i1 %38, label %39, label %43

39:                                               ; preds = %34
  %40 = load ptr, ptr %4, align 8, !tbaa !32
  %41 = load i32, ptr %11, align 4, !tbaa !8
  %42 = call i32 @Vec_IntEntry(ptr noundef %40, i32 noundef %41)
  store i32 %42, ptr %8, align 4, !tbaa !8
  br label %43

43:                                               ; preds = %39, %34
  %44 = phi i1 [ false, %34 ], [ true, %39 ]
  br i1 %44, label %45, label %71

45:                                               ; preds = %43
  %46 = load ptr, ptr %3, align 8, !tbaa !10
  %47 = getelementptr inbounds nuw %struct.Aig_ManPre_t_, ptr %46, i32 0, i32 9
  %48 = load ptr, ptr %47, align 8, !tbaa !26
  %49 = load i32, ptr %8, align 4, !tbaa !8
  %50 = sext i32 %49 to i64
  %51 = getelementptr inbounds i8, ptr %48, i64 %50
  %52 = load i8, ptr %51, align 1, !tbaa !56
  %53 = icmp ne i8 %52, 0
  br i1 %53, label %54, label %55

54:                                               ; preds = %45
  br label %68

55:                                               ; preds = %45
  %56 = load ptr, ptr %3, align 8, !tbaa !10
  %57 = getelementptr inbounds nuw %struct.Aig_ManPre_t_, ptr %56, i32 0, i32 4
  %58 = load ptr, ptr %57, align 8, !tbaa !25
  %59 = load i32, ptr %8, align 4, !tbaa !8
  %60 = sext i32 %59 to i64
  %61 = getelementptr inbounds i8, ptr %58, i64 %60
  %62 = load i8, ptr %61, align 1, !tbaa !56
  %63 = sext i8 %62 to i32
  %64 = mul nsw i32 3, %63
  %65 = add nsw i32 1, %64
  %66 = load i32, ptr %5, align 4, !tbaa !8
  %67 = add nsw i32 %66, %65
  store i32 %67, ptr %5, align 4, !tbaa !8
  br label %68

68:                                               ; preds = %55, %54
  %69 = load i32, ptr %11, align 4, !tbaa !8
  %70 = add nsw i32 %69, 1
  store i32 %70, ptr %11, align 4, !tbaa !8
  br label %34, !llvm.loop !60

71:                                               ; preds = %43
  %72 = load i32, ptr %5, align 4, !tbaa !8
  %73 = icmp eq i32 %72, 0
  br i1 %73, label %74, label %76

74:                                               ; preds = %71
  %75 = load i32, ptr %7, align 4, !tbaa !8
  store i32 %75, ptr %2, align 4
  store i32 1, ptr %12, align 4
  br label %89

76:                                               ; preds = %71
  %77 = load i32, ptr %6, align 4, !tbaa !8
  %78 = load i32, ptr %5, align 4, !tbaa !8
  %79 = icmp sgt i32 %77, %78
  br i1 %79, label %80, label %83

80:                                               ; preds = %76
  %81 = load i32, ptr %5, align 4, !tbaa !8
  store i32 %81, ptr %6, align 4, !tbaa !8
  %82 = load i32, ptr %7, align 4, !tbaa !8
  store i32 %82, ptr %9, align 4, !tbaa !8
  br label %83

83:                                               ; preds = %80, %76
  br label %84

84:                                               ; preds = %83
  %85 = load i32, ptr %10, align 4, !tbaa !8
  %86 = add nsw i32 %85, 1
  store i32 %86, ptr %10, align 4, !tbaa !8
  br label %13, !llvm.loop !61

87:                                               ; preds = %26
  %88 = load i32, ptr %9, align 4, !tbaa !8
  store i32 %88, ptr %2, align 4
  store i32 1, ptr %12, align 4
  br label %89

89:                                               ; preds = %87, %74
  call void @llvm.lifetime.end.p0(i64 4, ptr %11) #9
  call void @llvm.lifetime.end.p0(i64 4, ptr %10) #9
  call void @llvm.lifetime.end.p0(i64 4, ptr %9) #9
  call void @llvm.lifetime.end.p0(i64 4, ptr %8) #9
  call void @llvm.lifetime.end.p0(i64 4, ptr %7) #9
  call void @llvm.lifetime.end.p0(i64 4, ptr %6) #9
  call void @llvm.lifetime.end.p0(i64 4, ptr %5) #9
  call void @llvm.lifetime.end.p0(i64 8, ptr %4) #9
  %90 = load i32, ptr %2, align 4
  ret i32 %90
}