; Function Attrs: nofree norecurse nosync nounwind memory(read, inaccessiblemem: none) uwtable
define i32 @Aig_ManRegFindBestVar(ptr noundef readonly captures(none) %0) local_unnamed_addr #5 {
  %2 = getelementptr inbounds nuw i8, ptr %0, i64 56
  %3 = load ptr, ptr %2, align 8, !tbaa !28
  %4 = getelementptr i8, ptr %3, i64 4
  %.val35 = load i32, ptr %4, align 4, !tbaa !21
  %5 = icmp sgt i32 %.val35, 0
  br i1 %5, label %.lr.ph43, label %.critedge

.lr.ph43:                                         ; preds = %1
  %6 = getelementptr i8, ptr %3, i64 8
  %.val37 = load ptr, ptr %6, align 8, !tbaa !25
  %7 = getelementptr inbounds nuw i8, ptr %0, i64 8
  %8 = load ptr, ptr %7, align 8, !tbaa !14
  %9 = getelementptr i8, ptr %8, i64 8
  %.val = load ptr, ptr %9, align 8, !tbaa !19
  %10 = getelementptr inbounds nuw i8, ptr %0, i64 72
  %11 = getelementptr inbounds nuw i8, ptr %0, i64 32
  %wide.trip.count50 = zext nneg i32 %.val35 to i64
  br label %12

12:                                               ; preds = %.lr.ph43, %38
  %indvars.iv47 = phi i64 [ 0, %.lr.ph43 ], [ %indvars.iv.next48, %38 ]
  %.02741 = phi i32 [ -1, %.lr.ph43 ], [ %spec.select33, %38 ]
  %.03140 = phi i32 [ 1000000000, %.lr.ph43 ], [ %spec.select, %38 ]
  %13 = getelementptr inbounds nuw i32, ptr %.val37, i64 %indvars.iv47
  %14 = load i32, ptr %13, align 4, !tbaa !53
  %15 = sext i32 %14 to i64
  %16 = getelementptr inbounds ptr, ptr %.val, i64 %15
  %17 = load ptr, ptr %16, align 8, !tbaa !49
  %18 = getelementptr i8, ptr %17, i64 4
  %.val34 = load i32, ptr %18, align 4, !tbaa !21
  %19 = icmp sgt i32 %.val34, 0
  br i1 %19, label %.lr.ph, label %.critedge

.lr.ph:                                           ; preds = %12
  %20 = getelementptr i8, ptr %17, i64 8
  %.val36 = load ptr, ptr %20, align 8, !tbaa !25
  %21 = load ptr, ptr %10, align 8, !tbaa !45
  %wide.trip.count = zext nneg i32 %.val34 to i64
  br label %22

22:                                               ; preds = %.lr.ph, %36
  %indvars.iv = phi i64 [ 0, %.lr.ph ], [ %indvars.iv.next, %36 ]
  %.02938 = phi i32 [ 0, %.lr.ph ], [ %.130, %36 ]
  %23 = getelementptr inbounds nuw i32, ptr %.val36, i64 %indvars.iv
  %24 = load i32, ptr %23, align 4, !tbaa !53
  %25 = sext i32 %24 to i64
  %26 = getelementptr inbounds i8, ptr %21, i64 %25
  %27 = load i8, ptr %26, align 1, !tbaa !52
  %.not = icmp eq i8 %27, 0
  br i1 %.not, label %28, label %36

28:                                               ; preds = %22
  %29 = load ptr, ptr %11, align 8, !tbaa !44
  %30 = getelementptr inbounds i8, ptr %29, i64 %25
  %31 = load i8, ptr %30, align 1, !tbaa !52
  %32 = sext i8 %31 to i32
  %33 = mul nsw i32 %32, 3
  %34 = add i32 %.02938, 1
  %35 = add i32 %34, %33
  br label %36

36:                                               ; preds = %22, %28
  %.130 = phi i32 [ %.02938, %22 ], [ %35, %28 ]
  %indvars.iv.next = add nuw nsw i64 %indvars.iv, 1
  %exitcond.not = icmp eq i64 %indvars.iv.next, %wide.trip.count
  br i1 %exitcond.not, label %.critedge2, label %22, !llvm.loop !56

.critedge2:                                       ; preds = %36
  %37 = icmp eq i32 %.130, 0
  br i1 %37, label %.critedge, label %38

38:                                               ; preds = %.critedge2
  %39 = icmp sgt i32 %.03140, %.130
  %spec.select = tail call i32 @llvm.smin.i32(i32 %.03140, i32 %.130)
  %spec.select33 = select i1 %39, i32 %14, i32 %.02741
  %indvars.iv.next48 = add nuw nsw i64 %indvars.iv47, 1
  %exitcond51.not = icmp eq i64 %indvars.iv.next48, %wide.trip.count50
  br i1 %exitcond51.not, label %.critedge, label %12, !llvm.loop !57

.critedge:                                        ; preds = %12, %.critedge2, %38, %1
  %.028 = phi i32 [ -1, %1 ], [ %14, %12 ], [ %spec.select33, %38 ], [ %14, %.critedge2 ]
  ret i32 %.028
}